target datalayout = "e-m:e-p270:32:32-p271:32:32-p272:64:64-i64:64-i128:128-f80:128-n8:16:32:64-S128"
target triple = "x86_64-pc-linux-gnu"

%struct.rb_data_type_struct = type { ptr, %struct.anon, ptr, ptr, i64 }
%struct.anon = type { ptr, ptr, ptr, ptr, [1 x ptr] }
%struct.pkcs7_st = type { ptr, i64, i32, i32, ptr, %union.anon, %struct.PKCS7_CTX_st }
%union.anon = type { ptr }
%struct.PKCS7_CTX_st = type { ptr, ptr }
%struct.pkcs7_signedandenveloped_st = type { ptr, ptr, ptr, ptr, ptr, ptr, ptr }
%struct.pkcs7_signed_st = type { ptr, ptr, ptr, ptr, ptr, ptr }

@ossl_pkcs7_type = internal constant %struct.rb_data_type_struct { ptr @.str.53, %struct.anon { ptr null, ptr @ossl_pkcs7_free, ptr null, ptr null, [1 x ptr] zeroinitializer }, ptr null, ptr null, i64 33 }, align 8
@rb_eRuntimeError = external global i64, align 8
@.str.1 = private unnamed_addr constant [26 x i8] c"PKCS7 wasn't initialized.\00", align 1

; Function Attrs: nounwind sspstrong uwtable
define internal ptr @pkcs7_get_certs(i64 noundef %0) #0 {
  %2 = alloca i64, align 8
  %3 = alloca ptr, align 8
  %4 = alloca ptr, align 8
  %5 = alloca i32, align 4
  store i64 %0, ptr %2, align 8, !tbaa !11
  call void @llvm.lifetime.start.p0(i64 8, ptr %3) #16
  call void @llvm.lifetime.start.p0(i64 8, ptr %4) #16
  call void @llvm.lifetime.start.p0(i64 4, ptr %5) #16
  br label %6

6:                                                ; preds = %1
  %7 = load i64, ptr %2, align 8, !tbaa !11
  %8 = call ptr @rb_check_typeddata(i64 noundef %7, ptr noundef @ossl_pkcs7_type)
  store ptr %8, ptr %3, align 8, !tbaa !6
  %9 = load ptr, ptr %3, align 8, !tbaa !6
  %10 = icmp ne ptr %9, null
  br i1 %10, label %13, label %11

11:                                               ; preds = %6
  %12 = load i64, ptr @rb_eRuntimeError, align 8, !tbaa !11
  call void (i64, ptr, ...) @ossl_raise(i64 noundef %12, ptr noundef @.str.1) #17
  unreachable

13:                                               ; preds = %6
  br label %14

14:                                               ; preds = %13
  br label %15

15:                                               ; preds = %14
  %16 = load ptr, ptr %3, align 8, !tbaa !6
  %17 = getelementptr inbounds nuw %struct.pkcs7_st, ptr %16, i32 0, i32 4
  %18 = load ptr, ptr %17, align 8, !tbaa !24
  %19 = call i32 @OBJ_obj2nid(ptr noundef %18)
  store i32 %19, ptr %5, align 4, !tbaa !20
  %20 = load i32, ptr %5, align 4, !tbaa !20
  switch i32 %20, label %33 [
    i32 22, label %21
    i32 24, label %27
  ]

21:                                               ; preds = %15
  %22 = load ptr, ptr %3, align 8, !tbaa !6
  %23 = getelementptr inbounds nuw %struct.pkcs7_st, ptr %22, i32 0, i32 5
  %24 = load ptr, ptr %23, align 8, !tbaa !19
  %25 = getelementptr inbounds nuw %struct.pkcs7_signed_st, ptr %24, i32 0, i32 2
  %26 = load ptr, ptr %25, align 8, !tbaa !104
  store ptr %26, ptr %4, align 8, !tbaa !34
  br label %34

27:                                               ; preds = %15
  %28 = load ptr, ptr %3, align 8, !tbaa !6
  %29 = getelementptr inbounds nuw %struct.pkcs7_st, ptr %28, i32 0, i32 5
  %30 = load ptr, ptr %29, align 8, !tbaa !19
  %31 = getelementptr inbounds nuw %struct.pkcs7_signedandenveloped_st, ptr %30, i32 0, i32 2
  %32 = load ptr, ptr %31, align 8, !tbaa !106
  store ptr %32, ptr %4, align 8, !tbaa !34
  br label %34

33:                                               ; preds = %15
  store ptr null, ptr %4, align 8, !tbaa !34
  br label %34

34:                                               ; preds = %33, %27, %21
  %35 = load ptr, ptr %4, align 8, !tbaa !34
  call void @llvm.lifetime.end.p0(i64 4, ptr %5) #16
  call void @llvm.lifetime.end.p0(i64 8, ptr %4) #16
  call void @llvm.lifetime.end.p0(i64 8, ptr %3) #16
  ret ptr %35
}

; Function Attrs: nounwind sspstrong uwtable
define internal i64 @ossl_pkcs7_get_certificates(i64 noundef %0) #0 {
  %2 = alloca i64, align 8
  %3 = alloca i64, align 8
  %4 = alloca ptr, align 8
  %5 = alloca i32, align 4
  store i64 %0, ptr %3, align 8, !tbaa !11
  call void @llvm.lifetime.start.p0(i64 8, ptr %4) #16
  %6 = load i64, ptr %3, align 8, !tbaa !11
  %7 = call ptr @pkcs7_get_certs(i64 noundef %6)
  store ptr %7, ptr %4, align 8, !tbaa !34
  %8 = load ptr, ptr %4, align 8, !tbaa !34
  %9 = icmp ne ptr %8, null
  br i1 %9, label %11, label %10

10:                                               ; preds = %1
  store i64 4, ptr %2, align 8
  store i32 1, ptr %5, align 4
  br label %14

11:                                               ; preds = %1
  %12 = load ptr, ptr %4, align 8, !tbaa !34
  %13 = call i64 @ossl_x509_sk2ary(ptr noundef %12)
  store i64 %13, ptr %2, align 8
  store i32 1, ptr %5, align 4
  br label %14

14:                                               ; preds = %11, %10
  call void @llvm.lifetime.end.p0(i64 8, ptr %4) #16
  %15 = load i64, ptr %2, align 8
  ret i64 %15
}