; Function Attrs: nounwind sspstrong uwtable
define internal i64 @ossl_pkcs7_get_certificates(i64 noundef %0) #0 {
  %2 = tail call ptr @rb_check_typeddata(i64 noundef %0, ptr noundef nonnull @ossl_pkcs7_type) #5
  %.not.i = icmp eq ptr %2, null
  br i1 %.not.i, label %3, label %5

3:                                                ; preds = %1
  %4 = load i64, ptr @rb_eRuntimeError, align 8, !tbaa !6
  tail call void (i64, ptr, ...) @ossl_raise(i64 noundef %4, ptr noundef nonnull @.str.1) #6
  unreachable

5:                                                ; preds = %1
  %6 = getelementptr inbounds nuw i8, ptr %2, i64 24
  %7 = load ptr, ptr %6, align 8, !tbaa !22
  %8 = tail call i32 @OBJ_obj2nid(ptr noundef %7) #5
  switch i32 %8, label %pkcs7_get_certs.exit.thread [
    i32 22, label %pkcs7_get_certs.exit
    i32 24, label %pkcs7_get_certs.exit
  ]

pkcs7_get_certs.exit:                             ; preds = %5, %5
  %9 = getelementptr inbounds nuw i8, ptr %2, i64 32
  %10 = load ptr, ptr %9, align 8, !tbaa !17
  %11 = getelementptr inbounds nuw i8, ptr %10, i64 16
  %12 = load ptr, ptr %11, align 8, !tbaa !55
  %.not = icmp eq ptr %12, null
  br i1 %.not, label %pkcs7_get_certs.exit.thread, label %13

13:                                               ; preds = %pkcs7_get_certs.exit
  %14 = tail call i64 @ossl_x509_sk2ary(ptr noundef nonnull %12) #5
  br label %pkcs7_get_certs.exit.thread

pkcs7_get_certs.exit.thread:                      ; preds = %5, %pkcs7_get_certs.exit, %13
  %.0 = phi i64 [ %14, %13 ], [ 4, %pkcs7_get_certs.exit ], [ 4, %5 ]
  ret i64 %.0
}